; ModuleID = '63/2090.c'
source_filename = "63/2090.c"
target datalayout = "e-m:e-p270:32:32-p271:32:32-p272:64:64-i64:64-f80:128-n8:16:32:64-S128"
target triple = "x86_64-pc-linux-gnu"

@.str = private unnamed_addr constant [6 x i8] c"%d %d\00", align 1
@.str.1 = private unnamed_addr constant [3 x i8] c"%d\00", align 1
@.str.2 = private unnamed_addr constant [2 x i8] c" \00", align 1
@.str.3 = private unnamed_addr constant [2 x i8] c"\0A\00", align 1

; Function Attrs: noinline nounwind uwtable
define dso_local i32 @main() #0 {
  %1 = alloca i32, align 4
  %2 = alloca i32, align 4
  %3 = alloca i32, align 4
  %4 = alloca i32, align 4
  %5 = alloca i32, align 4
  %6 = alloca i32, align 4
  %7 = alloca i32, align 4
  %8 = alloca i32, align 4
  %9 = alloca [100 x [100 x i32]], align 16
  %10 = alloca [100 x [100 x i32]], align 16
  %11 = alloca [100 x [100 x i32]], align 16
  store i32 0, i32* %1, align 4
  %12 = call i32 (i8*, ...) @__isoc99_scanf(i8* getelementptr inbounds ([6 x i8], [6 x i8]* @.str, i64 0, i64 0), i32* %2, i32* %4)
  store i32 0, i32* %6, align 4
  br label %13

13:                                               ; preds = %36, %0
  %14 = load i32, i32* %6, align 4
  %15 = load i32, i32* %2, align 4
  %16 = sub nsw i32 %15, 1
  %17 = icmp sle i32 %14, %16
  br i1 %17, label %18, label %39

18:                                               ; preds = %13
  store i32 0, i32* %7, align 4
  br label %19

19:                                               ; preds = %32, %18
  %20 = load i32, i32* %7, align 4
  %21 = load i32, i32* %4, align 4
  %22 = sub nsw i32 %21, 1
  %23 = icmp sle i32 %20, %22
  br i1 %23, label %24, label %35

24:                                               ; preds = %19
  %25 = load i32, i32* %6, align 4
  %26 = sext i32 %25 to i64
  %27 = getelementptr inbounds [100 x [100 x i32]], [100 x [100 x i32]]* %9, i64 0, i64 %26
  %28 = load i32, i32* %7, align 4
  %29 = sext i32 %28 to i64
  %30 = getelementptr inbounds [100 x i32], [100 x i32]* %27, i64 0, i64 %29
  %31 = call i32 (i8*, ...) @__isoc99_scanf(i8* getelementptr inbounds ([3 x i8], [3 x i8]* @.str.1, i64 0, i64 0), i32* %30)
  br label %32

32:                                               ; preds = %24
  %33 = load i32, i32* %7, align 4
  %34 = add nsw i32 %33, 1
  store i32 %34, i32* %7, align 4
  br label %19

35:                                               ; preds = %19
  br label %36

36:                                               ; preds = %35
  %37 = load i32, i32* %6, align 4
  %38 = add nsw i32 %37, 1
  store i32 %38, i32* %6, align 4
  br label %13

39:                                               ; preds = %13
  %40 = call i32 (i8*, ...) @__isoc99_scanf(i8* getelementptr inbounds ([6 x i8], [6 x i8]* @.str, i64 0, i64 0), i32* %3, i32* %5)
  store i32 0, i32* %6, align 4
  br label %41

41:                                               ; preds = %64, %39
  %42 = load i32, i32* %6, align 4
  %43 = load i32, i32* %3, align 4
  %44 = sub nsw i32 %43, 1
  %45 = icmp sle i32 %42, %44
  br i1 %45, label %46, label %67

46:                                               ; preds = %41
  store i32 0, i32* %7, align 4
  br label %47

47:                                               ; preds = %60, %46
  %48 = load i32, i32* %7, align 4
  %49 = load i32, i32* %5, align 4
  %50 = sub nsw i32 %49, 1
  %51 = icmp sle i32 %48, %50
  br i1 %51, label %52, label %63

52:                                               ; preds = %47
  %53 = load i32, i32* %6, align 4
  %54 = sext i32 %53 to i64
  %55 = getelementptr inbounds [100 x [100 x i32]], [100 x [100 x i32]]* %10, i64 0, i64 %54
  %56 = load i32, i32* %7, align 4
  %57 = sext i32 %56 to i64
  %58 = getelementptr inbounds [100 x i32], [100 x i32]* %55, i64 0, i64 %57
  %59 = call i32 (i8*, ...) @__isoc99_scanf(i8* getelementptr inbounds ([3 x i8], [3 x i8]* @.str.1, i64 0, i64 0), i32* %58)
  br label %60

60:                                               ; preds = %52
  %61 = load i32, i32* %7, align 4
  %62 = add nsw i32 %61, 1
  store i32 %62, i32* %7, align 4
  br label %47

63:                                               ; preds = %47
  br label %64

64:                                               ; preds = %63
  %65 = load i32, i32* %6, align 4
  %66 = add nsw i32 %65, 1
  store i32 %66, i32* %6, align 4
  br label %41

67:                                               ; preds = %41
  store i32 0, i32* %6, align 4
  br label %68

68:                                               ; preds = %117, %67
  %69 = load i32, i32* %6, align 4
  %70 = load i32, i32* %2, align 4
  %71 = sub nsw i32 %70, 1
  %72 = icmp sle i32 %69, %71
  br i1 %72, label %73, label %120

73:                                               ; preds = %68
  store i32 0, i32* %7, align 4
  br label %74

74:                                               ; preds = %113, %73
  %75 = load i32, i32* %7, align 4
  %76 = load i32, i32* %5, align 4
  %77 = sub nsw i32 %76, 1
  %78 = icmp sle i32 %75, %77
  br i1 %78, label %79, label %116

79:                                               ; preds = %74
  store i32 0, i32* %8, align 4
  br label %80

80:                                               ; preds = %109, %79
  %81 = load i32, i32* %8, align 4
  %82 = load i32, i32* %4, align 4
  %83 = sub nsw i32 %82, 1
  %84 = icmp sle i32 %81, %83
  br i1 %84, label %85, label %112

85:                                               ; preds = %80
  %86 = load i32, i32* %6, align 4
  %87 = sext i32 %86 to i64
  %88 = getelementptr inbounds [100 x [100 x i32]], [100 x [100 x i32]]* %9, i64 0, i64 %87
  %89 = load i32, i32* %8, align 4
  %90 = sext i32 %89 to i64
  %91 = getelementptr inbounds [100 x i32], [100 x i32]* %88, i64 0, i64 %90
  %92 = load i32, i32* %91, align 4
  %93 = load i32, i32* %8, align 4
  %94 = sext i32 %93 to i64
  %95 = getelementptr inbounds [100 x [100 x i32]], [100 x [100 x i32]]* %10, i64 0, i64 %94
  %96 = load i32, i32* %7, align 4
  %97 = sext i32 %96 to i64
  %98 = getelementptr inbounds [100 x i32], [100 x i32]* %95, i64 0, i64 %97
  %99 = load i32, i32* %98, align 4
  %100 = mul nsw i32 %92, %99
  %101 = load i32, i32* %6, align 4
  %102 = sext i32 %101 to i64
  %103 = getelementptr inbounds [100 x [100 x i32]], [100 x [100 x i32]]* %11, i64 0, i64 %102
  %104 = load i32, i32* %7, align 4
  %105 = sext i32 %104 to i64
  %106 = getelementptr inbounds [100 x i32], [100 x i32]* %103, i64 0, i64 %105
  %107 = load i32, i32* %106, align 4
  %108 = add nsw i32 %107, %100
  store i32 %108, i32* %106, align 4
  br label %109

109:                                              ; preds = %85
  %110 = load i32, i32* %8, align 4
  %111 = add nsw i32 %110, 1
  store i32 %111, i32* %8, align 4
  br label %80

112:                                              ; preds = %80
  br label %113

113:                                              ; preds = %112
  %114 = load i32, i32* %7, align 4
  %115 = add nsw i32 %114, 1
  store i32 %115, i32* %7, align 4
  br label %74

116:                                              ; preds = %74
  br label %117

117:                                              ; preds = %116
  %118 = load i32, i32* %6, align 4
  %119 = add nsw i32 %118, 1
  store i32 %119, i32* %6, align 4
  br label %68

120:                                              ; preds = %68
  store i32 0, i32* %6, align 4
  br label %121

121:                                              ; preds = %159, %120
  %122 = load i32, i32* %6, align 4
  %123 = load i32, i32* %2, align 4
  %124 = sub nsw i32 %123, 1
  %125 = icmp sle i32 %122, %124
  br i1 %125, label %126, label %162

126:                                              ; preds = %121
  store i32 0, i32* %7, align 4
  br label %127

127:                                              ; preds = %155, %126
  %128 = load i32, i32* %7, align 4
  %129 = load i32, i32* %5, align 4
  %130 = sub nsw i32 %129, 1
  %131 = icmp sle i32 %128, %130
  br i1 %131, label %132, label %158

132:                                              ; preds = %127
  %133 = load i32, i32* %6, align 4
  %134 = sext i32 %133 to i64
  %135 = getelementptr inbounds [100 x [100 x i32]], [100 x [100 x i32]]* %11, i64 0, i64 %134
  %136 = load i32, i32* %7, align 4
  %137 = sext i32 %136 to i64
  %138 = getelementptr inbounds [100 x i32], [100 x i32]* %135, i64 0, i64 %137
  %139 = load i32, i32* %138, align 4
  %140 = call i32 (i8*, ...) @printf(i8* getelementptr inbounds ([3 x i8], [3 x i8]* @.str.1, i64 0, i64 0), i32 %139)
  %141 = load i32, i32* %7, align 4
  %142 = load i32, i32* %5, align 4
  %143 = sub nsw i32 %142, 1
  %144 = icmp ne i32 %141, %143
  br i1 %144, label %145, label %147

145:                                              ; preds = %132
  %146 = call i32 (i8*, ...) @printf(i8* getelementptr inbounds ([2 x i8], [2 x i8]* @.str.2, i64 0, i64 0))
  br label %147

147:                                              ; preds = %145, %132
  %148 = load i32, i32* %7, align 4
  %149 = load i32, i32* %5, align 4
  %150 = sub nsw i32 %149, 1
  %151 = icmp eq i32 %148, %150
  br i1 %151, label %152, label %154

152:                                              ; preds = %147
  %153 = call i32 (i8*, ...) @printf(i8* getelementptr inbounds ([2 x i8], [2 x i8]* @.str.3, i64 0, i64 0))
  br label %154

154:                                              ; preds = %152, %147
  br label %155

155:                                              ; preds = %154
  %156 = load i32, i32* %7, align 4
  %157 = add nsw i32 %156, 1
  store i32 %157, i32* %7, align 4
  br label %127

158:                                              ; preds = %127
  br label %159

159:                                              ; preds = %158
  %160 = load i32, i32* %6, align 4
  %161 = add nsw i32 %160, 1
  store i32 %161, i32* %6, align 4
  br label %121

162:                                              ; preds = %121
  %163 = load i32, i32* %1, align 4
  ret i32 %163
}

declare dso_local i32 @__isoc99_scanf(i8*, ...) #1

declare dso_local i32 @printf(i8*, ...) #1


!llvm.module.flags = !{!0}
!llvm.ident = !{!1}

!0 = !{i32 1, !"wchar_size", i32 4}
!1 = !{!"clang version 10.0.0-4ubuntu1 "}
